target datalayout = "e-m:e-p270:32:32-p271:32:32-p272:64:64-i64:64-i128:128-f80:128-n8:16:32:64-S128"
target triple = "x86_64-pc-linux-gnu"

@.str = private unnamed_addr constant [28 x i8] c"more_struct_union_type_prob\00", align 1
@.str.1 = private unnamed_addr constant [24 x i8] c"bitfields_creation_prob\00", align 1
@.str.2 = private unnamed_addr constant [31 x i8] c"bitfield_in_normal_struct_prob\00", align 1
@.str.3 = private unnamed_addr constant [43 x i8] c"scalar_field_in_full_bitfields_struct_prob\00", align 1
@.str.4 = private unnamed_addr constant [25 x i8] c"exhaustive_bitfield_prob\00", align 1
@.str.5 = private unnamed_addr constant [22 x i8] c"bitfields_signed_prob\00", align 1
@.str.6 = private unnamed_addr constant [21 x i8] c"safe_ops_signed_prob\00", align 1
@.str.7 = private unnamed_addr constant [26 x i8] c"select_deref_pointer_prob\00", align 1
@.str.8 = private unnamed_addr constant [22 x i8] c"regular_volatile_prob\00", align 1
@.str.9 = private unnamed_addr constant [19 x i8] c"regular_const_prob\00", align 1
@.str.10 = private unnamed_addr constant [20 x i8] c"stricter_const_prob\00", align 1
@.str.11 = private unnamed_addr constant [18 x i8] c"looser_const_prob\00", align 1
@.str.12 = private unnamed_addr constant [20 x i8] c"field_volatile_prob\00", align 1
@.str.13 = private unnamed_addr constant [17 x i8] c"field_const_prob\00", align 1
@.str.14 = private unnamed_addr constant [20 x i8] c"std_unary_func_prob\00", align 1
@.str.15 = private unnamed_addr constant [27 x i8] c"shift_by_non_constant_prob\00", align 1
@.str.16 = private unnamed_addr constant [22 x i8] c"pointer_as_ltype_prob\00", align 1
@.str.17 = private unnamed_addr constant [21 x i8] c"struct_as_ltype_prob\00", align 1
@.str.18 = private unnamed_addr constant [20 x i8] c"union_as_ltype_prob\00", align 1
@.str.19 = private unnamed_addr constant [20 x i8] c"float_as_ltype_prob\00", align 1
@.str.20 = private unnamed_addr constant [19 x i8] c"new_array_var_prob\00", align 1
@.str.21 = private unnamed_addr constant [21 x i8] c"access_once_var_prob\00", align 1
@.str.22 = private unnamed_addr constant [21 x i8] c"inline_function_prob\00", align 1
@.str.23 = private unnamed_addr constant [22 x i8] c"builtin_function_prob\00", align 1
@.str.24 = private unnamed_addr constant [15 x i8] c"array_oob_prob\00", align 1
@.str.25 = private unnamed_addr constant [15 x i8] c"statement_prob\00", align 1
@.str.26 = private unnamed_addr constant [16 x i8] c"assign_ops_prob\00", align 1
@.str.27 = private unnamed_addr constant [22 x i8] c"assign_unary_ops_prob\00", align 1
@.str.28 = private unnamed_addr constant [23 x i8] c"assign_binary_ops_prob\00", align 1
@.str.29 = private unnamed_addr constant [18 x i8] c"simple_types_prob\00", align 1
@.str.30 = private unnamed_addr constant [19 x i8] c"safe_ops_size_prob\00", align 1
@.str.31 = private unnamed_addr constant [15 x i8] c"func_attr_flag\00", align 1
@.str.32 = private unnamed_addr constant [15 x i8] c"type_attr_flag\00", align 1
@.str.33 = private unnamed_addr constant [16 x i8] c"label_attr_flag\00", align 1
@.str.34 = private unnamed_addr constant [14 x i8] c"var_attr_flag\00", align 1
@.str.35 = private unnamed_addr constant [16 x i8] c"binary_constant\00", align 1

; Function Attrs: mustprogress uwtable
define dso_local void @_ZN13Probabilities20set_single_name_mapsEv(ptr noundef nonnull align 8 dereferenceable(288) %0) #4 align 2 {
  %2 = alloca ptr, align 8
  store ptr %0, ptr %2, align 8
  %3 = load ptr, ptr %2, align 8
  call void @_ZN13Probabilities15set_single_nameEPKc8ProbName(ptr noundef nonnull align 8 dereferenceable(288) %3, ptr noundef @.str, i32 noundef 0)
  call void @_ZN13Probabilities15set_single_nameEPKc8ProbName(ptr noundef nonnull align 8 dereferenceable(288) %3, ptr noundef @.str.1, i32 noundef 1)
  call void @_ZN13Probabilities15set_single_nameEPKc8ProbName(ptr noundef nonnull align 8 dereferenceable(288) %3, ptr noundef @.str.2, i32 noundef 3)
  call void @_ZN13Probabilities15set_single_nameEPKc8ProbName(ptr noundef nonnull align 8 dereferenceable(288) %3, ptr noundef @.str.3, i32 noundef 4)
  call void @_ZN13Probabilities15set_single_nameEPKc8ProbName(ptr noundef nonnull align 8 dereferenceable(288) %3, ptr noundef @.str.4, i32 noundef 5)
  call void @_ZN13Probabilities15set_single_nameEPKc8ProbName(ptr noundef nonnull align 8 dereferenceable(288) %3, ptr noundef @.str.5, i32 noundef 2)
  call void @_ZN13Probabilities15set_single_nameEPKc8ProbName(ptr noundef nonnull align 8 dereferenceable(288) %3, ptr noundef @.str.6, i32 noundef 6)
  call void @_ZN13Probabilities15set_single_nameEPKc8ProbName(ptr noundef nonnull align 8 dereferenceable(288) %3, ptr noundef @.str.7, i32 noundef 7)
  call void @_ZN13Probabilities15set_single_nameEPKc8ProbName(ptr noundef nonnull align 8 dereferenceable(288) %3, ptr noundef @.str.8, i32 noundef 8)
  call void @_ZN13Probabilities15set_single_nameEPKc8ProbName(ptr noundef nonnull align 8 dereferenceable(288) %3, ptr noundef @.str.9, i32 noundef 9)
  call void @_ZN13Probabilities15set_single_nameEPKc8ProbName(ptr noundef nonnull align 8 dereferenceable(288) %3, ptr noundef @.str.10, i32 noundef 10)
  call void @_ZN13Probabilities15set_single_nameEPKc8ProbName(ptr noundef nonnull align 8 dereferenceable(288) %3, ptr noundef @.str.11, i32 noundef 11)
  call void @_ZN13Probabilities15set_single_nameEPKc8ProbName(ptr noundef nonnull align 8 dereferenceable(288) %3, ptr noundef @.str.12, i32 noundef 12)
  call void @_ZN13Probabilities15set_single_nameEPKc8ProbName(ptr noundef nonnull align 8 dereferenceable(288) %3, ptr noundef @.str.13, i32 noundef 13)
  call void @_ZN13Probabilities15set_single_nameEPKc8ProbName(ptr noundef nonnull align 8 dereferenceable(288) %3, ptr noundef @.str.14, i32 noundef 14)
  call void @_ZN13Probabilities15set_single_nameEPKc8ProbName(ptr noundef nonnull align 8 dereferenceable(288) %3, ptr noundef @.str.15, i32 noundef 15)
  call void @_ZN13Probabilities15set_single_nameEPKc8ProbName(ptr noundef nonnull align 8 dereferenceable(288) %3, ptr noundef @.str.16, i32 noundef 16)
  call void @_ZN13Probabilities15set_single_nameEPKc8ProbName(ptr noundef nonnull align 8 dereferenceable(288) %3, ptr noundef @.str.17, i32 noundef 17)
  call void @_ZN13Probabilities15set_single_nameEPKc8ProbName(ptr noundef nonnull align 8 dereferenceable(288) %3, ptr noundef @.str.18, i32 noundef 18)
  call void @_ZN13Probabilities15set_single_nameEPKc8ProbName(ptr noundef nonnull align 8 dereferenceable(288) %3, ptr noundef @.str.19, i32 noundef 19)
  call void @_ZN13Probabilities15set_single_nameEPKc8ProbName(ptr noundef nonnull align 8 dereferenceable(288) %3, ptr noundef @.str.20, i32 noundef 20)
  call void @_ZN13Probabilities15set_single_nameEPKc8ProbName(ptr noundef nonnull align 8 dereferenceable(288) %3, ptr noundef @.str.21, i32 noundef 21)
  call void @_ZN13Probabilities15set_single_nameEPKc8ProbName(ptr noundef nonnull align 8 dereferenceable(288) %3, ptr noundef @.str.22, i32 noundef 22)
  call void @_ZN13Probabilities15set_single_nameEPKc8ProbName(ptr noundef nonnull align 8 dereferenceable(288) %3, ptr noundef @.str.23, i32 noundef 23)
  call void @_ZN13Probabilities15set_single_nameEPKc8ProbName(ptr noundef nonnull align 8 dereferenceable(288) %3, ptr noundef @.str.24, i32 noundef 24)
  call void @_ZN13Probabilities15set_single_nameEPKc8ProbName(ptr noundef nonnull align 8 dereferenceable(288) %3, ptr noundef @.str.25, i32 noundef 25)
  call void @_ZN13Probabilities15set_single_nameEPKc8ProbName(ptr noundef nonnull align 8 dereferenceable(288) %3, ptr noundef @.str.26, i32 noundef 36)
  call void @_ZN13Probabilities15set_single_nameEPKc8ProbName(ptr noundef nonnull align 8 dereferenceable(288) %3, ptr noundef @.str.27, i32 noundef 52)
  call void @_ZN13Probabilities15set_single_nameEPKc8ProbName(ptr noundef nonnull align 8 dereferenceable(288) %3, ptr noundef @.str.28, i32 noundef 57)
  call void @_ZN13Probabilities15set_single_nameEPKc8ProbName(ptr noundef nonnull align 8 dereferenceable(288) %3, ptr noundef @.str.29, i32 noundef 76)
  call void @_ZN13Probabilities15set_single_nameEPKc8ProbName(ptr noundef nonnull align 8 dereferenceable(288) %3, ptr noundef @.str.30, i32 noundef 91)
  call void @_ZN13Probabilities15set_single_nameEPKc8ProbName(ptr noundef nonnull align 8 dereferenceable(288) %3, ptr noundef @.str.31, i32 noundef 96)
  call void @_ZN13Probabilities15set_single_nameEPKc8ProbName(ptr noundef nonnull align 8 dereferenceable(288) %3, ptr noundef @.str.32, i32 noundef 97)
  call void @_ZN13Probabilities15set_single_nameEPKc8ProbName(ptr noundef nonnull align 8 dereferenceable(288) %3, ptr noundef @.str.33, i32 noundef 98)
  call void @_ZN13Probabilities15set_single_nameEPKc8ProbName(ptr noundef nonnull align 8 dereferenceable(288) %3, ptr noundef @.str.34, i32 noundef 99)
  call void @_ZN13Probabilities15set_single_nameEPKc8ProbName(ptr noundef nonnull align 8 dereferenceable(288) %3, ptr noundef @.str.35, i32 noundef 100)
  ret void
}