; Function Attrs: mustprogress uwtable
define dso_local void @_ZN13Probabilities20set_single_name_mapsEv(ptr noundef nonnull align 8 dereferenceable(288) %0) local_unnamed_addr #3 align 2 {
  tail call void @_ZN13Probabilities15set_single_nameEPKc8ProbName(ptr noundef nonnull align 8 dereferenceable(288) %0, ptr noundef nonnull @.str, i32 noundef 0)
  tail call void @_ZN13Probabilities15set_single_nameEPKc8ProbName(ptr noundef nonnull align 8 dereferenceable(288) %0, ptr noundef nonnull @.str.1, i32 noundef 1)
  tail call void @_ZN13Probabilities15set_single_nameEPKc8ProbName(ptr noundef nonnull align 8 dereferenceable(288) %0, ptr noundef nonnull @.str.2, i32 noundef 3)
  tail call void @_ZN13Probabilities15set_single_nameEPKc8ProbName(ptr noundef nonnull align 8 dereferenceable(288) %0, ptr noundef nonnull @.str.3, i32 noundef 4)
  tail call void @_ZN13Probabilities15set_single_nameEPKc8ProbName(ptr noundef nonnull align 8 dereferenceable(288) %0, ptr noundef nonnull @.str.4, i32 noundef 5)
  tail call void @_ZN13Probabilities15set_single_nameEPKc8ProbName(ptr noundef nonnull align 8 dereferenceable(288) %0, ptr noundef nonnull @.str.5, i32 noundef 2)
  tail call void @_ZN13Probabilities15set_single_nameEPKc8ProbName(ptr noundef nonnull align 8 dereferenceable(288) %0, ptr noundef nonnull @.str.6, i32 noundef 6)
  tail call void @_ZN13Probabilities15set_single_nameEPKc8ProbName(ptr noundef nonnull align 8 dereferenceable(288) %0, ptr noundef nonnull @.str.7, i32 noundef 7)
  tail call void @_ZN13Probabilities15set_single_nameEPKc8ProbName(ptr noundef nonnull align 8 dereferenceable(288) %0, ptr noundef nonnull @.str.8, i32 noundef 8)
  tail call void @_ZN13Probabilities15set_single_nameEPKc8ProbName(ptr noundef nonnull align 8 dereferenceable(288) %0, ptr noundef nonnull @.str.9, i32 noundef 9)
  tail call void @_ZN13Probabilities15set_single_nameEPKc8ProbName(ptr noundef nonnull align 8 dereferenceable(288) %0, ptr noundef nonnull @.str.10, i32 noundef 10)
  tail call void @_ZN13Probabilities15set_single_nameEPKc8ProbName(ptr noundef nonnull align 8 dereferenceable(288) %0, ptr noundef nonnull @.str.11, i32 noundef 11)
  tail call void @_ZN13Probabilities15set_single_nameEPKc8ProbName(ptr noundef nonnull align 8 dereferenceable(288) %0, ptr noundef nonnull @.str.12, i32 noundef 12)
  tail call void @_ZN13Probabilities15set_single_nameEPKc8ProbName(ptr noundef nonnull align 8 dereferenceable(288) %0, ptr noundef nonnull @.str.13, i32 noundef 13)
  tail call void @_ZN13Probabilities15set_single_nameEPKc8ProbName(ptr noundef nonnull align 8 dereferenceable(288) %0, ptr noundef nonnull @.str.14, i32 noundef 14)
  tail call void @_ZN13Probabilities15set_single_nameEPKc8ProbName(ptr noundef nonnull align 8 dereferenceable(288) %0, ptr noundef nonnull @.str.15, i32 noundef 15)
  tail call void @_ZN13Probabilities15set_single_nameEPKc8ProbName(ptr noundef nonnull align 8 dereferenceable(288) %0, ptr noundef nonnull @.str.16, i32 noundef 16)
  tail call void @_ZN13Probabilities15set_single_nameEPKc8ProbName(ptr noundef nonnull align 8 dereferenceable(288) %0, ptr noundef nonnull @.str.17, i32 noundef 17)
  tail call void @_ZN13Probabilities15set_single_nameEPKc8ProbName(ptr noundef nonnull align 8 dereferenceable(288) %0, ptr noundef nonnull @.str.18, i32 noundef 18)
  tail call void @_ZN13Probabilities15set_single_nameEPKc8ProbName(ptr noundef nonnull align 8 dereferenceable(288) %0, ptr noundef nonnull @.str.19, i32 noundef 19)
  tail call void @_ZN13Probabilities15set_single_nameEPKc8ProbName(ptr noundef nonnull align 8 dereferenceable(288) %0, ptr noundef nonnull @.str.20, i32 noundef 20)
  tail call void @_ZN13Probabilities15set_single_nameEPKc8ProbName(ptr noundef nonnull align 8 dereferenceable(288) %0, ptr noundef nonnull @.str.21, i32 noundef 21)
  tail call void @_ZN13Probabilities15set_single_nameEPKc8ProbName(ptr noundef nonnull align 8 dereferenceable(288) %0, ptr noundef nonnull @.str.22, i32 noundef 22)
  tail call void @_ZN13Probabilities15set_single_nameEPKc8ProbName(ptr noundef nonnull align 8 dereferenceable(288) %0, ptr noundef nonnull @.str.23, i32 noundef 23)
  tail call void @_ZN13Probabilities15set_single_nameEPKc8ProbName(ptr noundef nonnull align 8 dereferenceable(288) %0, ptr noundef nonnull @.str.24, i32 noundef 24)
  tail call void @_ZN13Probabilities15set_single_nameEPKc8ProbName(ptr noundef nonnull align 8 dereferenceable(288) %0, ptr noundef nonnull @.str.25, i32 noundef 25)
  tail call void @_ZN13Probabilities15set_single_nameEPKc8ProbName(ptr noundef nonnull align 8 dereferenceable(288) %0, ptr noundef nonnull @.str.26, i32 noundef 36)
  tail call void @_ZN13Probabilities15set_single_nameEPKc8ProbName(ptr noundef nonnull align 8 dereferenceable(288) %0, ptr noundef nonnull @.str.27, i32 noundef 52)
  tail call void @_ZN13Probabilities15set_single_nameEPKc8ProbName(ptr noundef nonnull align 8 dereferenceable(288) %0, ptr noundef nonnull @.str.28, i32 noundef 57)
  tail call void @_ZN13Probabilities15set_single_nameEPKc8ProbName(ptr noundef nonnull align 8 dereferenceable(288) %0, ptr noundef nonnull @.str.29, i32 noundef 76)
  tail call void @_ZN13Probabilities15set_single_nameEPKc8ProbName(ptr noundef nonnull align 8 dereferenceable(288) %0, ptr noundef nonnull @.str.30, i32 noundef 91)
  tail call void @_ZN13Probabilities15set_single_nameEPKc8ProbName(ptr noundef nonnull align 8 dereferenceable(288) %0, ptr noundef nonnull @.str.31, i32 noundef 96)
  tail call void @_ZN13Probabilities15set_single_nameEPKc8ProbName(ptr noundef nonnull align 8 dereferenceable(288) %0, ptr noundef nonnull @.str.32, i32 noundef 97)
  tail call void @_ZN13Probabilities15set_single_nameEPKc8ProbName(ptr noundef nonnull align 8 dereferenceable(288) %0, ptr noundef nonnull @.str.33, i32 noundef 98)
  tail call void @_ZN13Probabilities15set_single_nameEPKc8ProbName(ptr noundef nonnull align 8 dereferenceable(288) %0, ptr noundef nonnull @.str.34, i32 noundef 99)
  tail call void @_ZN13Probabilities15set_single_nameEPKc8ProbName(ptr noundef nonnull align 8 dereferenceable(288) %0, ptr noundef nonnull @.str.35, i32 noundef 100)
  ret void
}